; Function Attrs: nofree norecurse nosync nounwind memory(readwrite, inaccessiblemem: none) uwtable
define void @N_VConst_Serial(double noundef %0, ptr noundef readonly captures(none) %1) #8 {
  %3 = load ptr, ptr %1, align 8, !tbaa !39
  %4 = load i64, ptr %3, align 8, !tbaa !32
  %5 = getelementptr inbounds nuw i8, ptr %3, i64 16
  %6 = load ptr, ptr %5, align 8, !tbaa !38
  %7 = icmp sgt i64 %4, 0
  br i1 %7, label %.lr.ph, label %._crit_edge

.lr.ph:                                           ; preds = %2, %.lr.ph
  %.07 = phi i64 [ %9, %.lr.ph ], [ 0, %2 ]
  %8 = getelementptr inbounds nuw double, ptr %6, i64 %.07
  store double %0, ptr %8, align 8, !tbaa !44
  %9 = add nuw nsw i64 %.07, 1
  %exitcond.not = icmp eq i64 %9, %4
  br i1 %exitcond.not, label %._crit_edge, label %.lr.ph, !llvm.loop !57

._crit_edge:                                      ; preds = %.lr.ph, %2
  ret void
}